target datalayout = "e-m:e-p270:32:32-p271:32:32-p272:64:64-i64:64-i128:128-f80:128-n8:16:32:64-S128"
target triple = "x86_64-pc-linux-gnu"

%"class.Json::Value" = type { %"union.Json::Value::ValueHolder", %struct.anon, %"class.Json::Value::Comments", i64, i64 }
%"union.Json::Value::ValueHolder" = type { i64 }
%struct.anon = type { i16, [2 x i8] }
%"class.Json::Value::Comments" = type { %"class.std::unique_ptr" }
%"class.std::unique_ptr" = type { %"struct.std::__uniq_ptr_data" }
%"struct.std::__uniq_ptr_data" = type { %"class.std::__uniq_ptr_impl" }
%"class.std::__uniq_ptr_impl" = type { %"class.std::tuple" }
%"class.std::tuple" = type { %"struct.std::_Tuple_impl" }
%"struct.std::_Tuple_impl" = type { %"struct.std::_Head_base.1" }
%"struct.std::_Head_base.1" = type { ptr }
%"class.std::map" = type { %"class.std::_Rb_tree" }
%"class.std::_Rb_tree" = type { %"struct.std::_Rb_tree<Json::Value::CZString, std::pair<const Json::Value::CZString, Json::Value>, std::_Select1st<std::pair<const Json::Value::CZString, Json::Value>>, std::less<Json::Value::CZString>>::_Rb_tree_impl" }
%"struct.std::_Rb_tree<Json::Value::CZString, std::pair<const Json::Value::CZString, Json::Value>, std::_Select1st<std::pair<const Json::Value::CZString, Json::Value>>, std::less<Json::Value::CZString>>::_Rb_tree_impl" = type { %"struct.std::_Rb_tree_key_compare", %"struct.std::_Rb_tree_header" }
%"struct.std::_Rb_tree_key_compare" = type { %"struct.std::less" }
%"struct.std::less" = type { i8 }
%"struct.std::_Rb_tree_header" = type { %"struct.std::_Rb_tree_node_base", i64 }
%"struct.std::_Rb_tree_node_base" = type { i32, ptr, ptr, ptr }

; Function Attrs: mustprogress nounwind uwtable
define linkonce_odr dso_local void @_ZNSt15__new_allocatorISt13_Rb_tree_nodeISt4pairIKN4Json5Value8CZStringES3_EEED2Ev(ptr noundef nonnull align 1 dereferenceable(1) %0) unnamed_addr #5 comdat align 2 {
  %2 = alloca ptr, align 8
  store ptr %0, ptr %2, align 8
  ret void
}

; Function Attrs: mustprogress nounwind uwtable
define linkonce_odr dso_local void @_ZNSaISt13_Rb_tree_nodeISt4pairIKN4Json5Value8CZStringES2_EEED2Ev(ptr noundef nonnull align 1 dereferenceable(1) %0) unnamed_addr #5 comdat align 2 {
  %2 = alloca ptr, align 8
  store ptr %0, ptr %2, align 8
  %3 = load ptr, ptr %2, align 8
  call void @_ZNSt15__new_allocatorISt13_Rb_tree_nodeISt4pairIKN4Json5Value8CZStringES3_EEED2Ev(ptr noundef nonnull align 1 dereferenceable(1) %3) #3
  ret void
}

; Function Attrs: mustprogress nounwind uwtable
define linkonce_odr dso_local noundef ptr @_ZNKSt8_Rb_treeIN4Json5Value8CZStringESt4pairIKS2_S1_ESt10_Select1stIS5_ESt4lessIS2_ESaIS5_EE9_M_mbeginEv(ptr noundef nonnull align 8 dereferenceable(48) %0) #5 comdat align 2 {
  %2 = alloca ptr, align 8
  store ptr %0, ptr %2, align 8
  %3 = load ptr, ptr %2, align 8
  %4 = getelementptr inbounds %"class.std::_Rb_tree", ptr %3, i32 0, i32 0
  %5 = getelementptr inbounds i8, ptr %4, i64 8
  %6 = getelementptr inbounds %"struct.std::_Rb_tree_header", ptr %5, i32 0, i32 0
  %7 = getelementptr inbounds %"struct.std::_Rb_tree_node_base", ptr %6, i32 0, i32 1
  %8 = load ptr, ptr %7, align 8
  ret ptr %8
}

; Function Attrs: mustprogress nounwind uwtable
define linkonce_odr dso_local void @_ZNSt8_Rb_treeIN4Json5Value8CZStringESt4pairIKS2_S1_ESt10_Select1stIS5_ESt4lessIS2_ESaIS5_EE13_Rb_tree_implIS9_Lb1EED2Ev(ptr noundef nonnull align 8 dereferenceable(48) %0) unnamed_addr #5 comdat align 2 {
  %2 = alloca ptr, align 8
  store ptr %0, ptr %2, align 8
  %3 = load ptr, ptr %2, align 8
  call void @_ZNSaISt13_Rb_tree_nodeISt4pairIKN4Json5Value8CZStringES2_EEED2Ev(ptr noundef nonnull align 1 dereferenceable(1) %3) #3
  ret void
}

; Function Attrs: mustprogress nounwind uwtable
define linkonce_odr dso_local noundef ptr @_ZNSt8_Rb_treeIN4Json5Value8CZStringESt4pairIKS2_S1_ESt10_Select1stIS5_ESt4lessIS2_ESaIS5_EE8_M_beginEv(ptr noundef nonnull align 8 dereferenceable(48) %0) #5 comdat align 2 {
  %2 = alloca ptr, align 8
  store ptr %0, ptr %2, align 8
  %3 = load ptr, ptr %2, align 8
  %4 = call noundef ptr @_ZNKSt8_Rb_treeIN4Json5Value8CZStringESt4pairIKS2_S1_ESt10_Select1stIS5_ESt4lessIS2_ESaIS5_EE9_M_mbeginEv(ptr noundef nonnull align 8 dereferenceable(48) %3) #3
  ret ptr %4
}

; Function Attrs: mustprogress nounwind uwtable
define linkonce_odr dso_local void @_ZNSt8_Rb_treeIN4Json5Value8CZStringESt4pairIKS2_S1_ESt10_Select1stIS5_ESt4lessIS2_ESaIS5_EED2Ev(ptr noundef nonnull align 8 dereferenceable(48) %0) unnamed_addr #5 comdat align 2 personality ptr @__gxx_personality_v0 {
  %2 = alloca ptr, align 8
  store ptr %0, ptr %2, align 8
  %3 = load ptr, ptr %2, align 8
  %4 = call noundef ptr @_ZNSt8_Rb_treeIN4Json5Value8CZStringESt4pairIKS2_S1_ESt10_Select1stIS5_ESt4lessIS2_ESaIS5_EE8_M_beginEv(ptr noundef nonnull align 8 dereferenceable(48) %3) #3
  invoke void @_ZNSt8_Rb_treeIN4Json5Value8CZStringESt4pairIKS2_S1_ESt10_Select1stIS5_ESt4lessIS2_ESaIS5_EE8_M_eraseEPSt13_Rb_tree_nodeIS5_E(ptr noundef nonnull align 8 dereferenceable(48) %3, ptr noundef %4)
          to label %5 unwind label %7

5:                                                ; preds = %1
  %6 = getelementptr inbounds %"class.std::_Rb_tree", ptr %3, i32 0, i32 0
  call void @_ZNSt8_Rb_treeIN4Json5Value8CZStringESt4pairIKS2_S1_ESt10_Select1stIS5_ESt4lessIS2_ESaIS5_EE13_Rb_tree_implIS9_Lb1EED2Ev(ptr noundef nonnull align 8 dereferenceable(48) %6) #3
  ret void

7:                                                ; preds = %1
  %8 = landingpad { ptr, i32 }
          catch ptr null
  %9 = extractvalue { ptr, i32 } %8, 0
  call void @__clang_call_terminate(ptr %9) #21
  unreachable
}

; Function Attrs: mustprogress nounwind uwtable
define linkonce_odr dso_local void @_ZNSt3mapIN4Json5Value8CZStringES1_St4lessIS2_ESaISt4pairIKS2_S1_EEED2Ev(ptr noundef nonnull align 8 dereferenceable(48) %0) unnamed_addr #5 comdat align 2 {
  %2 = alloca ptr, align 8
  store ptr %0, ptr %2, align 8
  %3 = load ptr, ptr %2, align 8
  %4 = getelementptr inbounds %"class.std::map", ptr %3, i32 0, i32 0
  call void @_ZNSt8_Rb_treeIN4Json5Value8CZStringESt4pairIKS2_S1_ESt10_Select1stIS5_ESt4lessIS2_ESaIS5_EED2Ev(ptr noundef nonnull align 8 dereferenceable(48) %4) #3
  ret void
}

; Function Attrs: mustprogress nounwind uwtable
define internal void @_ZN4JsonL26releasePrefixedStringValueEPc(ptr noundef %0) #5 {
  %2 = alloca ptr, align 8
  store ptr %0, ptr %2, align 8
  %3 = load ptr, ptr %2, align 8
  call void @free(ptr noundef %3) #3
  ret void
}

; Function Attrs: mustprogress nounwind uwtable
define linkonce_odr dso_local noundef zeroext i1 @_ZNK4Json5Value11isAllocatedEv(ptr noundef nonnull align 8 dereferenceable(40) %0) #5 comdat align 2 {
  %2 = alloca ptr, align 8
  store ptr %0, ptr %2, align 8
  %3 = load ptr, ptr %2, align 8
  %4 = getelementptr inbounds %"class.Json::Value", ptr %3, i32 0, i32 1
  %5 = load i16, ptr %4, align 8
  %6 = lshr i16 %5, 8
  %7 = and i16 %6, 1
  %8 = zext i16 %7 to i32
  %9 = icmp ne i32 %8, 0
  ret i1 %9
}

; Function Attrs: mustprogress nounwind uwtable
define dso_local noundef i32 @_ZNK4Json5Value4typeEv(ptr noundef nonnull align 8 dereferenceable(40) %0) #5 align 2 {
  %2 = alloca ptr, align 8
  store ptr %0, ptr %2, align 8
  %3 = load ptr, ptr %2, align 8
  %4 = getelementptr inbounds %"class.Json::Value", ptr %3, i32 0, i32 1
  %5 = load i16, ptr %4, align 8
  %6 = and i16 %5, 255
  %7 = zext i16 %6 to i32
  ret i32 %7
}

; Function Attrs: mustprogress uwtable
define dso_local void @_ZN4Json5Value14releasePayloadEv(ptr noundef nonnull align 8 dereferenceable(40) %0) #4 align 2 {
  %2 = alloca ptr, align 8
  store ptr %0, ptr %2, align 8
  %3 = load ptr, ptr %2, align 8
  %4 = call noundef i32 @_ZNK4Json5Value4typeEv(ptr noundef nonnull align 8 dereferenceable(40) %3)
  switch i32 %4, label %18 [
    i32 0, label %5
    i32 1, label %5
    i32 2, label %5
    i32 3, label %5
    i32 5, label %5
    i32 4, label %6
    i32 6, label %12
    i32 7, label %12
  ]

5:                                                ; preds = %1, %1, %1, %1, %1
  br label %19

6:                                                ; preds = %1
  %7 = call noundef zeroext i1 @_ZNK4Json5Value11isAllocatedEv(ptr noundef nonnull align 8 dereferenceable(40) %3)
  br i1 %7, label %8, label %11

8:                                                ; preds = %6
  %9 = getelementptr inbounds %"class.Json::Value", ptr %3, i32 0, i32 0
  %10 = load ptr, ptr %9, align 8
  call void @_ZN4JsonL26releasePrefixedStringValueEPc(ptr noundef %10)
  br label %11

11:                                               ; preds = %8, %6
  br label %19

12:                                               ; preds = %1, %1
  %13 = getelementptr inbounds %"class.Json::Value", ptr %3, i32 0, i32 0
  %14 = load ptr, ptr %13, align 8
  %15 = icmp eq ptr %14, null
  br i1 %15, label %17, label %16

16:                                               ; preds = %12
  call void @_ZNSt3mapIN4Json5Value8CZStringES1_St4lessIS2_ESaISt4pairIKS2_S1_EEED2Ev(ptr noundef nonnull align 8 dereferenceable(48) %14) #3
  call void @_ZdlPv(ptr noundef %14) #19
  br label %17

17:                                               ; preds = %16, %12
  br label %19

18:                                               ; preds = %1
  br label %19

19:                                               ; preds = %18, %17, %11, %5
  ret void
}

; Function Attrs: mustprogress uwtable
define dso_local void @_ZN4Json5Value7dupMetaERKS0_(ptr noundef nonnull align 8 dereferenceable(40) %0, ptr noundef nonnull align 8 dereferenceable(40) %1) #4 align 2 {
  %3 = alloca ptr, align 8
  %4 = alloca ptr, align 8
  store ptr %0, ptr %3, align 8
  store ptr %1, ptr %4, align 8
  %5 = load ptr, ptr %3, align 8
  %6 = load ptr, ptr %4, align 8
  %7 = getelementptr inbounds %"class.Json::Value", ptr %6, i32 0, i32 2
  %8 = getelementptr inbounds %"class.Json::Value", ptr %5, i32 0, i32 2
  %9 = call noundef nonnull align 8 dereferenceable(8) ptr @_ZN4Json5Value8CommentsaSERKS1_(ptr noundef nonnull align 8 dereferenceable(8) %8, ptr noundef nonnull align 8 dereferenceable(8) %7)
  %10 = load ptr, ptr %4, align 8
  %11 = getelementptr inbounds %"class.Json::Value", ptr %10, i32 0, i32 3
  %12 = load i64, ptr %11, align 8
  %13 = getelementptr inbounds %"class.Json::Value", ptr %5, i32 0, i32 3
  store i64 %12, ptr %13, align 8
  %14 = load ptr, ptr %4, align 8
  %15 = getelementptr inbounds %"class.Json::Value", ptr %14, i32 0, i32 4
  %16 = load i64, ptr %15, align 8
  %17 = getelementptr inbounds %"class.Json::Value", ptr %5, i32 0, i32 4
  store i64 %16, ptr %17, align 8
  ret void
}

; Function Attrs: mustprogress uwtable
define dso_local void @_ZN4Json5Value11copyPayloadERKS0_(ptr noundef nonnull align 8 dereferenceable(40) %0, ptr noundef nonnull align 8 dereferenceable(40) %1) #4 align 2 {
  %3 = alloca ptr, align 8
  %4 = alloca ptr, align 8
  store ptr %0, ptr %3, align 8
  store ptr %1, ptr %4, align 8
  %5 = load ptr, ptr %3, align 8
  call void @_ZN4Json5Value14releasePayloadEv(ptr noundef nonnull align 8 dereferenceable(40) %5)
  %6 = load ptr, ptr %4, align 8
  call void @_ZN4Json5Value10dupPayloadERKS0_(ptr noundef nonnull align 8 dereferenceable(40) %5, ptr noundef nonnull align 8 dereferenceable(40) %6)
  ret void
}

; Function Attrs: mustprogress uwtable
define dso_local void @_ZN4Json5Value4copyERKS0_(ptr noundef nonnull align 8 dereferenceable(40) %0, ptr noundef nonnull align 8 dereferenceable(40) %1) #4 align 2 {
  %3 = alloca ptr, align 8
  %4 = alloca ptr, align 8
  store ptr %0, ptr %3, align 8
  store ptr %1, ptr %4, align 8
  %5 = load ptr, ptr %3, align 8
  %6 = load ptr, ptr %4, align 8
  call void @_ZN4Json5Value11copyPayloadERKS0_(ptr noundef nonnull align 8 dereferenceable(40) %5, ptr noundef nonnull align 8 dereferenceable(40) %6)
  %7 = load ptr, ptr %4, align 8
  call void @_ZN4Json5Value7dupMetaERKS0_(ptr noundef nonnull align 8 dereferenceable(40) %5, ptr noundef nonnull align 8 dereferenceable(40) %7)
  ret void
}