; Function Attrs: mustprogress uwtable
define dso_local void @_ZN4Json5Value4copyERKS0_(ptr noundef nonnull align 8 dereferenceable(40) %0, ptr nocapture noundef nonnull readonly align 8 dereferenceable(40) %1) local_unnamed_addr #10 align 2 personality ptr @__gxx_personality_v0 {
  %3 = getelementptr inbounds i8, ptr %0, i64 8
  %4 = load i16, ptr %3, align 8
  %trunc.i.i = trunc i16 %4 to i8
  switch i8 %trunc.i.i, label %_ZN4Json5Value11copyPayloadERKS0_.exit [
    i8 7, label %9
    i8 6, label %9
    i8 4, label %5
  ]

5:                                                ; preds = %2
  %6 = and i16 %4, 256
  %.not.i.i = icmp eq i16 %6, 0
  br i1 %.not.i.i, label %_ZN4Json5Value11copyPayloadERKS0_.exit, label %7

7:                                                ; preds = %5
  %8 = load ptr, ptr %0, align 8
  tail call void @free(ptr noundef %8) #35
  br label %_ZN4Json5Value11copyPayloadERKS0_.exit

9:                                                ; preds = %2, %2
  %10 = load ptr, ptr %0, align 8
  %11 = icmp eq ptr %10, null
  br i1 %11, label %_ZN4Json5Value11copyPayloadERKS0_.exit, label %12

12:                                               ; preds = %9
  %13 = getelementptr inbounds i8, ptr %10, i64 16
  %14 = load ptr, ptr %13, align 8
  invoke void @_ZNSt8_Rb_treeIN4Json5Value8CZStringESt4pairIKS2_S1_ESt10_Select1stIS5_ESt4lessIS2_ESaIS5_EE8_M_eraseEPSt13_Rb_tree_nodeIS5_E(ptr noundef nonnull align 8 dereferenceable(48) %10, ptr noundef %14)
          to label %_ZNSt3mapIN4Json5Value8CZStringES1_St4lessIS2_ESaISt4pairIKS2_S1_EEED2Ev.exit.i.i unwind label %15

15:                                               ; preds = %12
  %16 = landingpad { ptr, i32 }
          catch ptr null
  %17 = extractvalue { ptr, i32 } %16, 0
  tail call void @__clang_call_terminate(ptr %17) #40
  unreachable

_ZNSt3mapIN4Json5Value8CZStringES1_St4lessIS2_ESaISt4pairIKS2_S1_EEED2Ev.exit.i.i: ; preds = %12
  tail call void @_ZdlPv(ptr noundef nonnull %10) #38
  br label %_ZN4Json5Value11copyPayloadERKS0_.exit

_ZN4Json5Value11copyPayloadERKS0_.exit:           ; preds = %2, %5, %7, %9, %_ZNSt3mapIN4Json5Value8CZStringES1_St4lessIS2_ESaISt4pairIKS2_S1_EEED2Ev.exit.i.i
  tail call void @_ZN4Json5Value10dupPayloadERKS0_(ptr noundef nonnull align 8 dereferenceable(40) %0, ptr noundef nonnull align 8 dereferenceable(40) %1)
  %18 = getelementptr inbounds i8, ptr %1, i64 16
  %19 = getelementptr inbounds i8, ptr %0, i64 16
  %20 = tail call noundef nonnull align 8 dereferenceable(8) ptr @_ZN4Json5Value8CommentsaSERKS1_(ptr noundef nonnull align 8 dereferenceable(8) %19, ptr noundef nonnull align 8 dereferenceable(8) %18)
  %21 = getelementptr inbounds i8, ptr %1, i64 24
  %22 = load i64, ptr %21, align 8
  %23 = getelementptr inbounds i8, ptr %0, i64 24
  store i64 %22, ptr %23, align 8
  %24 = getelementptr inbounds i8, ptr %1, i64 32
  %25 = load i64, ptr %24, align 8
  %26 = getelementptr inbounds i8, ptr %0, i64 32
  store i64 %25, ptr %26, align 8
  ret void
}